target datalayout = "e-m:e-p270:32:32-p271:32:32-p272:64:64-i64:64-i128:128-f80:128-n8:16:32:64-S128"
target triple = "x86_64-pc-linux-gnu"

%"class.std::__cxx11::basic_string" = type { %"struct.std::__cxx11::basic_string<char>::_Alloc_hider", i64, %union.anon }
%"struct.std::__cxx11::basic_string<char>::_Alloc_hider" = type { ptr }
%union.anon = type { i64, [8 x i8] }
%"class.dmlc::io::InputSplitBase" = type { %"class.dmlc::InputSplit", ptr, %"class.std::vector", i64, i64, i64, %"class.std::vector.0", ptr, i64, i64, %"struct.dmlc::io::InputSplitBase::Chunk", i64, i64, %"class.std::__cxx11::basic_string" }
%"class.dmlc::InputSplit" = type { ptr }
%"class.std::vector.0" = type { %"struct.std::_Vector_base.1" }
%"struct.std::_Vector_base.1" = type { %"struct.std::_Vector_base<dmlc::io::FileInfo, std::allocator<dmlc::io::FileInfo>>::_Vector_impl" }
%"struct.std::_Vector_base<dmlc::io::FileInfo, std::allocator<dmlc::io::FileInfo>>::_Vector_impl" = type { %"struct.std::_Vector_base<dmlc::io::FileInfo, std::allocator<dmlc::io::FileInfo>>::_Vector_impl_data" }
%"struct.std::_Vector_base<dmlc::io::FileInfo, std::allocator<dmlc::io::FileInfo>>::_Vector_impl_data" = type { ptr, ptr, ptr }
%"struct.dmlc::io::InputSplitBase::Chunk" = type { ptr, ptr, %"class.std::vector.5" }
%"class.std::vector.5" = type { %"struct.std::_Vector_base.6" }
%"struct.std::_Vector_base.6" = type { %"struct.std::_Vector_base<unsigned int, std::allocator<unsigned int>>::_Vector_impl" }
%"struct.std::_Vector_base<unsigned int, std::allocator<unsigned int>>::_Vector_impl" = type { %"struct.std::_Vector_base<unsigned int, std::allocator<unsigned int>>::_Vector_impl_data" }
%"struct.std::_Vector_base<unsigned int, std::allocator<unsigned int>>::_Vector_impl_data" = type { ptr, ptr, ptr }
%"class.std::vector" = type { %"struct.std::_Vector_base" }
%"struct.std::_Vector_base" = type { %"struct.std::_Vector_base<unsigned long, std::allocator<unsigned long>>::_Vector_impl" }
%"struct.std::_Vector_base<unsigned long, std::allocator<unsigned long>>::_Vector_impl" = type { %"struct.std::_Vector_base<unsigned long, std::allocator<unsigned long>>::_Vector_impl_data" }
%"struct.std::_Vector_base<unsigned long, std::allocator<unsigned long>>::_Vector_impl_data" = type { ptr, ptr, ptr }

; Function Attrs: mustprogress uwtable
define noundef zeroext i1 @_ZN4dmlc2io23IndexedRecordIOSplitter9NextBatchEPNS_10InputSplit4BlobEm(ptr noundef nonnull align 8 dereferenceable(5304) %0, ptr noundef %1, i64 noundef %2) unnamed_addr #4 align 2 {
  %4 = alloca i1, align 1
  %5 = alloca ptr, align 8
  %6 = alloca ptr, align 8
  %7 = alloca i64, align 8
  store ptr %0, ptr %5, align 8, !tbaa !3
  store ptr %1, ptr %6, align 8, !tbaa !117
  store i64 %2, ptr %7, align 8, !tbaa !10
  %8 = load ptr, ptr %5, align 8
  br label %9

9:                                                ; preds = %22, %3
  %10 = load ptr, ptr %6, align 8, !tbaa !117
  %11 = getelementptr inbounds nuw %"class.dmlc::io::InputSplitBase", ptr %8, i32 0, i32 10
  %12 = call noundef zeroext i1 @_ZN4dmlc2io14InputSplitBase16ExtractNextChunkEPNS_10InputSplit4BlobEPNS1_5ChunkE(ptr noundef nonnull align 8 dereferenceable(200) %8, ptr noundef %10, ptr noundef %11)
  %13 = xor i1 %12, true
  br i1 %13, label %14, label %23

14:                                               ; preds = %9
  %15 = getelementptr inbounds nuw %"class.dmlc::io::InputSplitBase", ptr %8, i32 0, i32 10
  %16 = load i64, ptr %7, align 8, !tbaa !10
  %17 = load ptr, ptr %8, align 8, !tbaa !53
  %18 = getelementptr inbounds ptr, ptr %17, i64 13
  %19 = load ptr, ptr %18, align 8
  %20 = call noundef zeroext i1 %19(ptr noundef nonnull align 8 dereferenceable(5304) %8, ptr noundef %15, i64 noundef %16)
  br i1 %20, label %22, label %21

21:                                               ; preds = %14
  store i1 false, ptr %4, align 1
  br label %24

22:                                               ; preds = %14
  br label %9, !llvm.loop !135

23:                                               ; preds = %9
  store i1 true, ptr %4, align 1
  br label %24

24:                                               ; preds = %23, %21
  %25 = load i1, ptr %4, align 1
  ret i1 %25
}