; Function Attrs: mustprogress uwtable
define noundef zeroext i1 @_ZN4dmlc2io23IndexedRecordIOSplitter9NextBatchEPNS_10InputSplit4BlobEm(ptr noundef nonnull align 8 dereferenceable(5304) %0, ptr noundef %1, i64 noundef %2) unnamed_addr #3 align 2 {
  %4 = getelementptr inbounds nuw i8, ptr %0, i64 112
  br label %5

5:                                                ; preds = %7, %3
  %6 = tail call noundef zeroext i1 @_ZN4dmlc2io14InputSplitBase16ExtractNextChunkEPNS_10InputSplit4BlobEPNS1_5ChunkE(ptr noundef nonnull align 8 dereferenceable(200) %0, ptr noundef %1, ptr noundef nonnull %4)
  br i1 %6, label %12, label %7

7:                                                ; preds = %5
  %8 = load ptr, ptr %0, align 8, !tbaa !61
  %9 = getelementptr inbounds nuw i8, ptr %8, i64 104
  %10 = load ptr, ptr %9, align 8
  %11 = tail call noundef zeroext i1 %10(ptr noundef nonnull align 8 dereferenceable(5304) %0, ptr noundef nonnull %4, i64 noundef %2)
  br i1 %11, label %5, label %12, !llvm.loop !141

12:                                               ; preds = %5, %7
  ret i1 %6
}